target datalayout = "e-m:e-p270:32:32-p271:32:32-p272:64:64-i64:64-i128:128-f80:128-n8:16:32:64-S128"
target triple = "x86_64-pc-linux-gnu"

%struct.node_info_msg = type { i64, i32, ptr }
%struct.node_info = type { ptr, ptr, i16, i64, ptr, i16, i16, i32, i32, i64, i16, i16, ptr, ptr, ptr, ptr, ptr, ptr, ptr, ptr, ptr, ptr, i64, ptr, i64, ptr, i32, ptr, ptr, i32, ptr, i32, ptr, i16, i64, i16, ptr, ptr, ptr, i64, i32, i64, ptr, ptr, i64, i16, i16, i32, i32, ptr, ptr }

@g_node_info_ptr = external global ptr, align 8
@.str = private unnamed_addr constant [39 x i8] c"build_nodes_bitmap: node_names is NULL\00", align 1
@.str.1 = private unnamed_addr constant [46 x i8] c"build_nodes_bitmap: hostlist_create(%s) error\00", align 1
@.str.62 = private unnamed_addr constant [32 x i8] c"_find_node_inx passed NULL name\00", align 1

; Function Attrs: nounwind uwtable
define internal i32 @_find_node_inx(ptr noundef %0) #0 {
  %2 = alloca i32, align 4
  %3 = alloca ptr, align 8
  %4 = alloca i32, align 4
  %5 = alloca i32, align 4
  store ptr %0, ptr %3, align 8
  call void @llvm.lifetime.start.p0(i64 4, ptr %4) #11
  %6 = load ptr, ptr %3, align 8
  %7 = icmp eq ptr %6, null
  br i1 %7, label %14, label %8

8:                                                ; preds = %1
  %9 = load ptr, ptr %3, align 8
  %10 = getelementptr inbounds i8, ptr %9, i64 0
  %11 = load i8, ptr %10, align 1
  %12 = sext i8 %11 to i32
  %13 = icmp eq i32 %12, 0
  br i1 %13, label %14, label %25

14:                                               ; preds = %8, %1
  br label %15

15:                                               ; preds = %14
  br label %16

16:                                               ; preds = %15
  %17 = call i32 @get_log_level()
  %18 = icmp sge i32 %17, 3
  br i1 %18, label %19, label %20

19:                                               ; preds = %16
  call void (i32, ptr, ...) @log_var(i32 noundef 3, ptr noundef @.str.62)
  br label %20

20:                                               ; preds = %19, %16
  br label %21

21:                                               ; preds = %20
  br label %22

22:                                               ; preds = %21
  br label %23

23:                                               ; preds = %22
  br label %24

24:                                               ; preds = %23
  store i32 -1, ptr %2, align 4
  store i32 1, ptr %5, align 4
  br label %62

25:                                               ; preds = %8
  store i32 0, ptr %4, align 4
  br label %26

26:                                               ; preds = %58, %25
  %27 = load i32, ptr %4, align 4
  %28 = load ptr, ptr @g_node_info_ptr, align 8
  %29 = getelementptr inbounds nuw %struct.node_info_msg, ptr %28, i32 0, i32 1
  %30 = load i32, ptr %29, align 8
  %31 = icmp ult i32 %27, %30
  br i1 %31, label %32, label %61

32:                                               ; preds = %26
  %33 = load ptr, ptr @g_node_info_ptr, align 8
  %34 = getelementptr inbounds nuw %struct.node_info_msg, ptr %33, i32 0, i32 2
  %35 = load ptr, ptr %34, align 8
  %36 = load i32, ptr %4, align 4
  %37 = sext i32 %36 to i64
  %38 = getelementptr inbounds %struct.node_info, ptr %35, i64 %37
  %39 = getelementptr inbounds nuw %struct.node_info, ptr %38, i32 0, i32 25
  %40 = load ptr, ptr %39, align 8
  %41 = icmp eq ptr %40, null
  br i1 %41, label %42, label %43

42:                                               ; preds = %32
  br label %58

43:                                               ; preds = %32
  %44 = load ptr, ptr %3, align 8
  %45 = load ptr, ptr @g_node_info_ptr, align 8
  %46 = getelementptr inbounds nuw %struct.node_info_msg, ptr %45, i32 0, i32 2
  %47 = load ptr, ptr %46, align 8
  %48 = load i32, ptr %4, align 4
  %49 = sext i32 %48 to i64
  %50 = getelementptr inbounds %struct.node_info, ptr %47, i64 %49
  %51 = getelementptr inbounds nuw %struct.node_info, ptr %50, i32 0, i32 25
  %52 = load ptr, ptr %51, align 8
  %53 = call i32 @xstrcmp(ptr noundef %44, ptr noundef %52)
  %54 = icmp ne i32 %53, 0
  br i1 %54, label %57, label %55

55:                                               ; preds = %43
  %56 = load i32, ptr %4, align 4
  store i32 %56, ptr %2, align 4
  store i32 1, ptr %5, align 4
  br label %62

57:                                               ; preds = %43
  br label %58

58:                                               ; preds = %57, %42
  %59 = load i32, ptr %4, align 4
  %60 = add nsw i32 %59, 1
  store i32 %60, ptr %4, align 4
  br label %26, !llvm.loop !14

61:                                               ; preds = %26
  store i32 -1, ptr %2, align 4
  store i32 1, ptr %5, align 4
  br label %62

62:                                               ; preds = %61, %55, %24
  call void @llvm.lifetime.end.p0(i64 4, ptr %4) #11
  %63 = load i32, ptr %2, align 4
  ret i32 %63
}

; Function Attrs: nounwind uwtable
define dso_local i32 @build_nodes_bitmap(ptr noundef %0, ptr noundef %1) #0 {
  %3 = alloca i32, align 4
  %4 = alloca ptr, align 8
  %5 = alloca ptr, align 8
  %6 = alloca ptr, align 8
  %7 = alloca ptr, align 8
  %8 = alloca ptr, align 8
  %9 = alloca i32, align 4
  %10 = alloca i32, align 4
  store ptr %0, ptr %4, align 8
  store ptr %1, ptr %5, align 8
  call void @llvm.lifetime.start.p0(i64 8, ptr %6) #11
  call void @llvm.lifetime.start.p0(i64 8, ptr %7) #11
  call void @llvm.lifetime.start.p0(i64 8, ptr %8) #11
  call void @llvm.lifetime.start.p0(i64 4, ptr %9) #11
  store i32 -1, ptr %9, align 4
  %11 = load ptr, ptr @g_node_info_ptr, align 8
  %12 = getelementptr inbounds nuw %struct.node_info_msg, ptr %11, i32 0, i32 1
  %13 = load i32, ptr %12, align 8
  %14 = zext i32 %13 to i64
  %15 = call ptr @bit_alloc(i64 noundef %14)
  store ptr %15, ptr %7, align 8
  %16 = load ptr, ptr %7, align 8
  %17 = load ptr, ptr %5, align 8
  store ptr %16, ptr %17, align 8
  %18 = load ptr, ptr %4, align 8
  %19 = icmp ne ptr %18, null
  br i1 %19, label %22, label %20

20:                                               ; preds = %2
  %21 = call i32 (ptr, ...) @error(ptr noundef @.str)
  store i32 22, ptr %3, align 4
  store i32 1, ptr %10, align 4
  br label %47

22:                                               ; preds = %2
  %23 = load ptr, ptr %4, align 8
  %24 = call ptr @hostlist_create(ptr noundef %23)
  store ptr %24, ptr %8, align 8
  %25 = icmp ne ptr %24, null
  br i1 %25, label %29, label %26

26:                                               ; preds = %22
  %27 = load ptr, ptr %4, align 8
  %28 = call i32 (ptr, ...) @error(ptr noundef @.str.1, ptr noundef %27)
  store i32 22, ptr %3, align 4
  store i32 1, ptr %10, align 4
  br label %47

29:                                               ; preds = %22
  br label %30

30:                                               ; preds = %41, %40, %29
  %31 = load ptr, ptr %8, align 8
  %32 = call ptr @hostlist_shift(ptr noundef %31)
  store ptr %32, ptr %6, align 8
  %33 = icmp ne ptr %32, null
  br i1 %33, label %34, label %45

34:                                               ; preds = %30
  %35 = load ptr, ptr %6, align 8
  %36 = call i32 @_find_node_inx(ptr noundef %35)
  store i32 %36, ptr %9, align 4
  %37 = load ptr, ptr %6, align 8
  call void @free(ptr noundef %37) #11
  %38 = load i32, ptr %9, align 4
  %39 = icmp eq i32 %38, -1
  br i1 %39, label %40, label %41

40:                                               ; preds = %34
  br label %30, !llvm.loop !13

41:                                               ; preds = %34
  %42 = load ptr, ptr %7, align 8
  %43 = load i32, ptr %9, align 4
  %44 = sext i32 %43 to i64
  call void @bit_set(ptr noundef %42, i64 noundef %44)
  br label %30, !llvm.loop !13

45:                                               ; preds = %30
  %46 = load ptr, ptr %8, align 8
  call void @hostlist_destroy(ptr noundef %46)
  store i32 0, ptr %3, align 4
  store i32 1, ptr %10, align 4
  br label %47

47:                                               ; preds = %45, %26, %20
  call void @llvm.lifetime.end.p0(i64 4, ptr %9) #11
  call void @llvm.lifetime.end.p0(i64 8, ptr %8) #11
  call void @llvm.lifetime.end.p0(i64 8, ptr %7) #11
  call void @llvm.lifetime.end.p0(i64 8, ptr %6) #11
  %48 = load i32, ptr %3, align 4
  ret i32 %48
}