; Function Attrs: nounwind uwtable
define dso_local range(i32 0, 23) i32 @build_nodes_bitmap(ptr noundef %0, ptr noundef writeonly captures(none) initializes((0, 8)) %1) local_unnamed_addr #2 {
  %3 = load ptr, ptr @g_node_info_ptr, align 8
  %4 = getelementptr inbounds nuw i8, ptr %3, i64 8
  %5 = load i32, ptr %4, align 8
  %6 = zext i32 %5 to i64
  %7 = tail call ptr @bit_alloc(i64 noundef %6) #16
  store ptr %7, ptr %1, align 8
  %.not = icmp eq ptr %0, null
  br i1 %.not, label %8, label %10

8:                                                ; preds = %2
  %9 = tail call i32 (ptr, ...) @error(ptr noundef nonnull @.str) #16
  br label %42

10:                                               ; preds = %2
  %11 = tail call ptr @hostlist_create(ptr noundef nonnull %0) #16
  %.not15 = icmp eq ptr %11, null
  br i1 %.not15, label %13, label %.preheader

.preheader:                                       ; preds = %10
  %12 = tail call ptr @hostlist_shift(ptr noundef nonnull %11) #16
  %.not1620 = icmp eq ptr %12, null
  br i1 %.not1620, label %._crit_edge, label %.lr.ph

13:                                               ; preds = %10
  %14 = tail call i32 (ptr, ...) @error(ptr noundef nonnull @.str.1, ptr noundef nonnull %0) #16
  br label %42

.lr.ph:                                           ; preds = %.preheader, %.backedge
  %15 = phi ptr [ %41, %.backedge ], [ %12, %.preheader ]
  %16 = load i8, ptr %15, align 1
  %17 = icmp eq i8 %16, 0
  br i1 %17, label %21, label %.preheader.i

.preheader.i:                                     ; preds = %.lr.ph
  %18 = load ptr, ptr @g_node_info_ptr, align 8
  %19 = getelementptr inbounds nuw i8, ptr %18, i64 8
  %20 = load i32, ptr %19, align 8
  %.not14.i = icmp eq i32 %20, 0
  br i1 %.not14.i, label %_find_node_inx.exit, label %.lr.ph.i

21:                                               ; preds = %.lr.ph
  %22 = tail call i32 @get_log_level() #16
  %23 = icmp sgt i32 %22, 2
  br i1 %23, label %24, label %_find_node_inx.exit

24:                                               ; preds = %21
  tail call void (i32, ptr, ...) @log_var(i32 noundef 3, ptr noundef nonnull @.str.62) #16
  br label %_find_node_inx.exit

.lr.ph.i:                                         ; preds = %.preheader.i, %33
  %25 = phi ptr [ %34, %33 ], [ %18, %.preheader.i ]
  %indvars.iv.i = phi i64 [ %indvars.iv.next.i, %33 ], [ 0, %.preheader.i ]
  %26 = getelementptr inbounds nuw i8, ptr %25, i64 16
  %27 = load ptr, ptr %26, align 8
  %28 = getelementptr inbounds nuw %struct.node_info, ptr %27, i64 %indvars.iv.i, i32 25
  %29 = load ptr, ptr %28, align 8
  %30 = icmp eq ptr %29, null
  br i1 %30, label %33, label %31

31:                                               ; preds = %.lr.ph.i
  %32 = tail call i32 @xstrcmp(ptr noundef nonnull %15, ptr noundef nonnull %29) #16
  %.not.i = icmp eq i32 %32, 0
  br i1 %.not.i, label %39, label %._crit_edge.i

._crit_edge.i:                                    ; preds = %31
  %.pre.i = load ptr, ptr @g_node_info_ptr, align 8
  br label %33

33:                                               ; preds = %._crit_edge.i, %.lr.ph.i
  %34 = phi ptr [ %.pre.i, %._crit_edge.i ], [ %25, %.lr.ph.i ]
  %indvars.iv.next.i = add nuw nsw i64 %indvars.iv.i, 1
  %35 = getelementptr inbounds nuw i8, ptr %34, i64 8
  %36 = load i32, ptr %35, align 8
  %37 = zext i32 %36 to i64
  %38 = icmp samesign ult i64 %indvars.iv.next.i, %37
  br i1 %38, label %.lr.ph.i, label %_find_node_inx.exit, !llvm.loop !12

_find_node_inx.exit:                              ; preds = %33, %.preheader.i, %21, %24
  tail call void @free(ptr noundef %15) #16
  br label %.backedge

39:                                               ; preds = %31
  tail call void @free(ptr noundef nonnull %15) #16
  %sext = shl nuw i64 %indvars.iv.i, 32
  %40 = ashr exact i64 %sext, 32
  tail call void @bit_set(ptr noundef %7, i64 noundef %40) #16
  br label %.backedge

.backedge:                                        ; preds = %39, %_find_node_inx.exit
  %41 = tail call ptr @hostlist_shift(ptr noundef nonnull %11) #16
  %.not16 = icmp eq ptr %41, null
  br i1 %.not16, label %._crit_edge, label %.lr.ph, !llvm.loop !13

._crit_edge:                                      ; preds = %.backedge, %.preheader
  tail call void @hostlist_destroy(ptr noundef nonnull %11) #16
  br label %42

42:                                               ; preds = %._crit_edge, %13, %8
  %.0 = phi i32 [ 0, %._crit_edge ], [ 22, %13 ], [ 22, %8 ]
  ret i32 %.0
}